target datalayout = "e-m:e-p270:32:32-p271:32:32-p272:64:64-i64:64-i128:128-f80:128-n8:16:32:64-S128"
target triple = "x86_64-pc-linux-gnu"

%class.V3ConfigResolver = type { %class.V3ConfigWildcardResolver, %class.V3ConfigWildcardResolver.0, %class.V3ConfigScopeTraceResolver, %"class.std::unordered_map", ptr }
%class.V3ConfigWildcardResolver = type { %class.V3MutexImp, %"class.std::map", %"class.std::map" }
%class.V3MutexImp = type { %"class.std::mutex" }
%"class.std::mutex" = type { %"class.std::__mutex_base" }
%"class.std::__mutex_base" = type { %union.pthread_mutex_t }
%union.pthread_mutex_t = type { %struct.__pthread_mutex_s }
%struct.__pthread_mutex_s = type { i32, i32, i32, i32, i32, i16, i16, %struct.__pthread_internal_list }
%struct.__pthread_internal_list = type { ptr, ptr }
%"class.std::map" = type { %"class.std::_Rb_tree" }
%"class.std::_Rb_tree" = type { %"struct.std::_Rb_tree<const std::__cxx11::basic_string<char>, std::pair<const std::__cxx11::basic_string<char>, V3ConfigModule>, std::_Select1st<std::pair<const std::__cxx11::basic_string<char>, V3ConfigModule>>, std::less<const std::__cxx11::basic_string<char>>>::_Rb_tree_impl" }
%"struct.std::_Rb_tree<const std::__cxx11::basic_string<char>, std::pair<const std::__cxx11::basic_string<char>, V3ConfigModule>, std::_Select1st<std::pair<const std::__cxx11::basic_string<char>, V3ConfigModule>>, std::less<const std::__cxx11::basic_string<char>>>::_Rb_tree_impl" = type { %"struct.std::_Rb_tree_key_compare", %"struct.std::_Rb_tree_header" }
%"struct.std::_Rb_tree_key_compare" = type { %"struct.std::less" }
%"struct.std::less" = type { i8 }
%"struct.std::_Rb_tree_header" = type { %"struct.std::_Rb_tree_node_base", i64 }
%"struct.std::_Rb_tree_node_base" = type { i32, ptr, ptr, ptr }
%class.V3ConfigWildcardResolver.0 = type { %class.V3MutexImp, %"class.std::map.1", %"class.std::map.1" }
%"class.std::map.1" = type { %"class.std::_Rb_tree.2" }
%"class.std::_Rb_tree.2" = type { %"struct.std::_Rb_tree<const std::__cxx11::basic_string<char>, std::pair<const std::__cxx11::basic_string<char>, V3ConfigFile>, std::_Select1st<std::pair<const std::__cxx11::basic_string<char>, V3ConfigFile>>, std::less<const std::__cxx11::basic_string<char>>>::_Rb_tree_impl" }
%"struct.std::_Rb_tree<const std::__cxx11::basic_string<char>, std::pair<const std::__cxx11::basic_string<char>, V3ConfigFile>, std::_Select1st<std::pair<const std::__cxx11::basic_string<char>, V3ConfigFile>>, std::less<const std::__cxx11::basic_string<char>>>::_Rb_tree_impl" = type { %"struct.std::_Rb_tree_key_compare", %"struct.std::_Rb_tree_header" }
%class.V3ConfigScopeTraceResolver = type { %"class.std::vector", %"class.std::map.9" }
%"class.std::vector" = type { %"struct.std::_Vector_base" }
%"struct.std::_Vector_base" = type { %"struct.std::_Vector_base<V3ConfigScopeTraceEntry, std::allocator<V3ConfigScopeTraceEntry>>::_Vector_impl" }
%"struct.std::_Vector_base<V3ConfigScopeTraceEntry, std::allocator<V3ConfigScopeTraceEntry>>::_Vector_impl" = type { %"struct.std::_Vector_base<V3ConfigScopeTraceEntry, std::allocator<V3ConfigScopeTraceEntry>>::_Vector_impl_data" }
%"struct.std::_Vector_base<V3ConfigScopeTraceEntry, std::allocator<V3ConfigScopeTraceEntry>>::_Vector_impl_data" = type { ptr, ptr, ptr }
%"class.std::map.9" = type { %"class.std::_Rb_tree.10" }
%"class.std::_Rb_tree.10" = type { %"struct.std::_Rb_tree<V3ConfigScopeTraceEntryMatch, std::pair<const V3ConfigScopeTraceEntryMatch, bool>, std::_Select1st<std::pair<const V3ConfigScopeTraceEntryMatch, bool>>, std::less<V3ConfigScopeTraceEntryMatch>>::_Rb_tree_impl" }
%"struct.std::_Rb_tree<V3ConfigScopeTraceEntryMatch, std::pair<const V3ConfigScopeTraceEntryMatch, bool>, std::_Select1st<std::pair<const V3ConfigScopeTraceEntryMatch, bool>>, std::less<V3ConfigScopeTraceEntryMatch>>::_Rb_tree_impl" = type { %"struct.std::_Rb_tree_key_compare.14", %"struct.std::_Rb_tree_header" }
%"struct.std::_Rb_tree_key_compare.14" = type { %"struct.std::less.15" }
%"struct.std::less.15" = type { i8 }
%"class.std::unordered_map" = type { %"class.std::_Hashtable" }
%"class.std::_Hashtable" = type { ptr, i64, %"struct.std::__detail::_Hash_node_base", i64, %"struct.std::__detail::_Prime_rehash_policy", ptr }
%"struct.std::__detail::_Hash_node_base" = type { ptr }
%"struct.std::__detail::_Prime_rehash_policy" = type { float, i64 }
%"class.std::unordered_set" = type { %"class.std::_Hashtable.58" }
%"class.std::_Hashtable.58" = type { ptr, i64, %"struct.std::__detail::_Hash_node_base", i64, %"struct.std::__detail::_Prime_rehash_policy", ptr }
%"class.std::__cxx11::basic_string" = type { %"struct.std::__cxx11::basic_string<char>::_Alloc_hider", i64, %union.anon }
%"struct.std::__cxx11::basic_string<char>::_Alloc_hider" = type { ptr }
%union.anon = type { i64, [8 x i8] }
%class.V3ConfigModule = type <{ %class.V3ConfigWildcardResolver.46, %class.V3ConfigWildcardResolver.52, %"class.std::unordered_set", %"class.std::set", i8, i8, [6 x i8] }>
%class.V3ConfigWildcardResolver.46 = type { %class.V3MutexImp, %"class.std::map.47", %"class.std::map.47" }
%"class.std::map.47" = type { %"class.std::_Rb_tree.48" }
%"class.std::_Rb_tree.48" = type { %"struct.std::_Rb_tree<const std::__cxx11::basic_string<char>, std::pair<const std::__cxx11::basic_string<char>, V3ConfigFTask>, std::_Select1st<std::pair<const std::__cxx11::basic_string<char>, V3ConfigFTask>>, std::less<const std::__cxx11::basic_string<char>>>::_Rb_tree_impl" }
%"struct.std::_Rb_tree<const std::__cxx11::basic_string<char>, std::pair<const std::__cxx11::basic_string<char>, V3ConfigFTask>, std::_Select1st<std::pair<const std::__cxx11::basic_string<char>, V3ConfigFTask>>, std::less<const std::__cxx11::basic_string<char>>>::_Rb_tree_impl" = type { %"struct.std::_Rb_tree_key_compare", %"struct.std::_Rb_tree_header" }
%class.V3ConfigWildcardResolver.52 = type { %class.V3MutexImp, %"class.std::map.53", %"class.std::map.53" }
%"class.std::map.53" = type { %"class.std::_Rb_tree.54" }
%"class.std::_Rb_tree.54" = type { %"struct.std::_Rb_tree<const std::__cxx11::basic_string<char>, std::pair<const std::__cxx11::basic_string<char>, V3ConfigVar>, std::_Select1st<std::pair<const std::__cxx11::basic_string<char>, V3ConfigVar>>, std::less<const std::__cxx11::basic_string<char>>>::_Rb_tree_impl" }
%"struct.std::_Rb_tree<const std::__cxx11::basic_string<char>, std::pair<const std::__cxx11::basic_string<char>, V3ConfigVar>, std::_Select1st<std::pair<const std::__cxx11::basic_string<char>, V3ConfigVar>>, std::less<const std::__cxx11::basic_string<char>>>::_Rb_tree_impl" = type { %"struct.std::_Rb_tree_key_compare", %"struct.std::_Rb_tree_header" }
%"class.std::set" = type { %"class.std::_Rb_tree.71" }
%"class.std::_Rb_tree.71" = type { %"struct.std::_Rb_tree<VPragmaType, VPragmaType, std::_Identity<VPragmaType>, std::less<VPragmaType>>::_Rb_tree_impl" }
%"struct.std::_Rb_tree<VPragmaType, VPragmaType, std::_Identity<VPragmaType>, std::less<VPragmaType>>::_Rb_tree_impl" = type { %"struct.std::_Rb_tree_key_compare.75", %"struct.std::_Rb_tree_header" }
%"struct.std::_Rb_tree_key_compare.75" = type { %"struct.std::less.76" }
%"struct.std::less.76" = type { i8 }
%class.V3ConfigFTask = type <{ %class.V3ConfigWildcardResolver.52, i8, i8, i8, [5 x i8] }>
%class.AstNode = type { ptr, ptr, ptr, ptr, ptr, ptr, ptr, ptr, %class.VNType, %struct.anon.78, i8, i32, ptr, ptr, ptr, ptr, %class.VNUser, i32, i32, %class.VNUser, %class.VNUser, i32, i32, %class.VNUser }
%class.VNType = type { i16 }
%struct.anon.78 = type { i8 }
%class.VNUser = type { %union.anon.79 }
%union.anon.79 = type { ptr }
%class.AstVar = type <{ %class.AstNode, %"class.std::__cxx11::basic_string", %"class.std::__cxx11::basic_string", %"class.std::__cxx11::basic_string", %class.VVarType, %class.VDirection, %class.VDirection, %class.VLifetime, %class.VVarAttrClocker, [3 x i8], i32, i48, [4 x i8], ptr }>
%class.VVarType = type { i8 }
%class.VDirection = type { i8 }
%class.VLifetime = type { i8 }
%class.VVarAttrClocker = type { i8 }

@__dso_handle = external hidden global i8
@_ZZN16V3ConfigResolver1sEvE11s_singleton = linkonce_odr dso_local global %class.V3ConfigResolver zeroinitializer, comdat, align 8
@_ZGVZN16V3ConfigResolver1sEvE11s_singleton = linkonce_odr dso_local global i64 0, comdat, align 8

; Function Attrs: mustprogress nounwind uwtable
define linkonce_odr dso_local noundef nonnull align 8 dereferenceable(136) ptr @_ZN14V3ConfigModule4varsEv(ptr noundef nonnull align 8 dereferenceable(384) %0) #5 comdat align 2 {
  %2 = alloca ptr, align 8
  store ptr %0, ptr %2, align 8
  %3 = load ptr, ptr %2, align 8
  %4 = getelementptr inbounds %class.V3ConfigModule, ptr %3, i32 0, i32 1
  ret ptr %4
}

; Function Attrs: mustprogress uwtable
define linkonce_odr dso_local void @_ZNK6AstVar4nameB5cxx11Ev(ptr dead_on_unwind noalias writable sret(%"class.std::__cxx11::basic_string") align 8 %0, ptr noundef nonnull align 8 dereferenceable(280) %1) unnamed_addr #4 comdat align 2 {
  %3 = alloca ptr, align 8
  %4 = alloca ptr, align 8
  store ptr %0, ptr %3, align 8
  store ptr %1, ptr %4, align 8
  %5 = load ptr, ptr %4, align 8
  %6 = getelementptr inbounds %class.AstVar, ptr %5, i32 0, i32 1
  call void @_ZNSt7__cxx1112basic_stringIcSt11char_traitsIcESaIcEEC1ERKS4_(ptr noundef nonnull align 8 dereferenceable(32) %0, ptr noundef nonnull align 8 dereferenceable(32) %6)
  ret void
}

; Function Attrs: mustprogress nounwind uwtable
define linkonce_odr dso_local noundef nonnull align 8 dereferenceable(136) ptr @_ZN13V3ConfigFTask4varsEv(ptr noundef nonnull align 8 dereferenceable(144) %0) #5 comdat align 2 {
  %2 = alloca ptr, align 8
  store ptr %0, ptr %2, align 8
  %3 = load ptr, ptr %2, align 8
  %4 = getelementptr inbounds %class.V3ConfigFTask, ptr %3, i32 0, i32 0
  ret ptr %4
}

; Function Attrs: mustprogress nounwind uwtable
define linkonce_odr dso_local noundef nonnull align 8 dereferenceable(136) ptr @_ZN14V3ConfigModule6ftasksEv(ptr noundef nonnull align 8 dereferenceable(384) %0) #5 comdat align 2 {
  %2 = alloca ptr, align 8
  store ptr %0, ptr %2, align 8
  %3 = load ptr, ptr %2, align 8
  %4 = getelementptr inbounds %class.V3ConfigModule, ptr %3, i32 0, i32 0
  ret ptr %4
}

; Function Attrs: mustprogress nounwind uwtable
define linkonce_odr dso_local noundef nonnull align 8 dereferenceable(136) ptr @_ZN16V3ConfigResolver7modulesEv(ptr noundef nonnull align 8 dereferenceable(408) %0) #5 comdat align 2 {
  %2 = alloca ptr, align 8
  store ptr %0, ptr %2, align 8
  %3 = load ptr, ptr %2, align 8
  %4 = getelementptr inbounds %class.V3ConfigResolver, ptr %3, i32 0, i32 0
  ret ptr %4
}

; Function Attrs: mustprogress nounwind uwtable
define linkonce_odr dso_local noundef nonnull align 8 dereferenceable(408) ptr @_ZN16V3ConfigResolver1sEv() #5 comdat align 2 {
  %1 = load atomic i8, ptr @_ZGVZN16V3ConfigResolver1sEvE11s_singleton acquire, align 8
  %2 = icmp eq i8 %1, 0
  br i1 %2, label %3, label %8, !prof !5

3:                                                ; preds = %0
  %4 = call i32 @__cxa_guard_acquire(ptr @_ZGVZN16V3ConfigResolver1sEvE11s_singleton) #3
  %5 = icmp ne i32 %4, 0
  br i1 %5, label %6, label %8

6:                                                ; preds = %3
  call void @_ZN16V3ConfigResolverC2Ev(ptr noundef nonnull align 8 dereferenceable(408) @_ZZN16V3ConfigResolver1sEvE11s_singleton) #3
  %7 = call i32 @__cxa_atexit(ptr @_ZN16V3ConfigResolverD2Ev, ptr @_ZZN16V3ConfigResolver1sEvE11s_singleton, ptr @__dso_handle) #3
  call void @__cxa_guard_release(ptr @_ZGVZN16V3ConfigResolver1sEvE11s_singleton) #3
  br label %8

8:                                                ; preds = %6, %3, %0
  ret ptr @_ZZN16V3ConfigResolver1sEvE11s_singleton
}

; Function Attrs: mustprogress uwtable
define dso_local void @_ZN8V3Config12applyVarAttrEP13AstNodeModuleP12AstNodeFTaskP6AstVar(ptr noundef %0, ptr noundef %1, ptr noundef %2) #4 align 2 personality ptr @__gxx_personality_v0 {
  %4 = alloca ptr, align 8
  %5 = alloca ptr, align 8
  %6 = alloca ptr, align 8
  %7 = alloca ptr, align 8
  %8 = alloca ptr, align 8
  %9 = alloca %"class.std::__cxx11::basic_string", align 8
  %10 = alloca ptr, align 8
  %11 = alloca i32, align 4
  %12 = alloca ptr, align 8
  %13 = alloca %"class.std::__cxx11::basic_string", align 8
  %14 = alloca %"class.std::__cxx11::basic_string", align 8
  %15 = alloca %"class.std::__cxx11::basic_string", align 8
  store ptr %0, ptr %4, align 8
  store ptr %1, ptr %5, align 8
  store ptr %2, ptr %6, align 8
  %16 = call noundef nonnull align 8 dereferenceable(408) ptr @_ZN16V3ConfigResolver1sEv()
  %17 = call noundef nonnull align 8 dereferenceable(136) ptr @_ZN16V3ConfigResolver7modulesEv(ptr noundef nonnull align 8 dereferenceable(408) %16)
  %18 = load ptr, ptr %4, align 8
  %19 = load ptr, ptr %18, align 8
  %20 = getelementptr inbounds ptr, ptr %19, i64 7
  %21 = load ptr, ptr %20, align 8
  call void %21(ptr dead_on_unwind writable sret(%"class.std::__cxx11::basic_string") align 8 %9, ptr noundef nonnull align 8 dereferenceable(257) %18)
  %22 = invoke noundef ptr @_ZN24V3ConfigWildcardResolverI14V3ConfigModuleE7resolveERKNSt7__cxx1112basic_stringIcSt11char_traitsIcESaIcEEE(ptr noundef nonnull align 8 dereferenceable(136) %17, ptr noundef nonnull align 8 dereferenceable(32) %9)
          to label %23 unwind label %27

23:                                               ; preds = %3
  call void @_ZNSt7__cxx1112basic_stringIcSt11char_traitsIcESaIcEED1Ev(ptr noundef nonnull align 8 dereferenceable(32) %9) #3
  store ptr %22, ptr %8, align 8
  %24 = load ptr, ptr %8, align 8
  %25 = icmp ne ptr %24, null
  br i1 %25, label %31, label %26

26:                                               ; preds = %23
  br label %76

27:                                               ; preds = %3
  %28 = landingpad { ptr, i32 }
          cleanup
  %29 = extractvalue { ptr, i32 } %28, 0
  store ptr %29, ptr %10, align 8
  %30 = extractvalue { ptr, i32 } %28, 1
  store i32 %30, ptr %11, align 4
  call void @_ZNSt7__cxx1112basic_stringIcSt11char_traitsIcESaIcEED1Ev(ptr noundef nonnull align 8 dereferenceable(32) %9) #3
  br label %77

31:                                               ; preds = %23
  %32 = load ptr, ptr %5, align 8
  %33 = icmp ne ptr %32, null
  br i1 %33, label %34, label %60

34:                                               ; preds = %31
  %35 = load ptr, ptr %8, align 8
  %36 = call noundef nonnull align 8 dereferenceable(136) ptr @_ZN14V3ConfigModule6ftasksEv(ptr noundef nonnull align 8 dereferenceable(384) %35)
  %37 = load ptr, ptr %5, align 8
  %38 = load ptr, ptr %37, align 8
  %39 = getelementptr inbounds ptr, ptr %38, i64 7
  %40 = load ptr, ptr %39, align 8
  call void %40(ptr dead_on_unwind writable sret(%"class.std::__cxx11::basic_string") align 8 %13, ptr noundef nonnull align 8 dereferenceable(240) %37)
  %41 = invoke noundef ptr @_ZN24V3ConfigWildcardResolverI13V3ConfigFTaskE7resolveERKNSt7__cxx1112basic_stringIcSt11char_traitsIcESaIcEEE(ptr noundef nonnull align 8 dereferenceable(136) %36, ptr noundef nonnull align 8 dereferenceable(32) %13)
          to label %42 unwind label %46

42:                                               ; preds = %34
  call void @_ZNSt7__cxx1112basic_stringIcSt11char_traitsIcESaIcEED1Ev(ptr noundef nonnull align 8 dereferenceable(32) %13) #3
  store ptr %41, ptr %12, align 8
  %43 = load ptr, ptr %12, align 8
  %44 = icmp ne ptr %43, null
  br i1 %44, label %50, label %45

45:                                               ; preds = %42
  br label %76

46:                                               ; preds = %34
  %47 = landingpad { ptr, i32 }
          cleanup
  %48 = extractvalue { ptr, i32 } %47, 0
  store ptr %48, ptr %10, align 8
  %49 = extractvalue { ptr, i32 } %47, 1
  store i32 %49, ptr %11, align 4
  call void @_ZNSt7__cxx1112basic_stringIcSt11char_traitsIcESaIcEED1Ev(ptr noundef nonnull align 8 dereferenceable(32) %13) #3
  br label %77

50:                                               ; preds = %42
  %51 = load ptr, ptr %12, align 8
  %52 = call noundef nonnull align 8 dereferenceable(136) ptr @_ZN13V3ConfigFTask4varsEv(ptr noundef nonnull align 8 dereferenceable(144) %51)
  %53 = load ptr, ptr %6, align 8
  call void @_ZNK6AstVar4nameB5cxx11Ev(ptr dead_on_unwind writable sret(%"class.std::__cxx11::basic_string") align 8 %14, ptr noundef nonnull align 8 dereferenceable(280) %53)
  %54 = invoke noundef ptr @_ZN24V3ConfigWildcardResolverI11V3ConfigVarE7resolveERKNSt7__cxx1112basic_stringIcSt11char_traitsIcESaIcEEE(ptr noundef nonnull align 8 dereferenceable(136) %52, ptr noundef nonnull align 8 dereferenceable(32) %14)
          to label %55 unwind label %56

55:                                               ; preds = %50
  store ptr %54, ptr %7, align 8
  call void @_ZNSt7__cxx1112basic_stringIcSt11char_traitsIcESaIcEED1Ev(ptr noundef nonnull align 8 dereferenceable(32) %14) #3
  br label %70

56:                                               ; preds = %50
  %57 = landingpad { ptr, i32 }
          cleanup
  %58 = extractvalue { ptr, i32 } %57, 0
  store ptr %58, ptr %10, align 8
  %59 = extractvalue { ptr, i32 } %57, 1
  store i32 %59, ptr %11, align 4
  call void @_ZNSt7__cxx1112basic_stringIcSt11char_traitsIcESaIcEED1Ev(ptr noundef nonnull align 8 dereferenceable(32) %14) #3
  br label %77

60:                                               ; preds = %31
  %61 = load ptr, ptr %8, align 8
  %62 = call noundef nonnull align 8 dereferenceable(136) ptr @_ZN14V3ConfigModule4varsEv(ptr noundef nonnull align 8 dereferenceable(384) %61)
  %63 = load ptr, ptr %6, align 8
  call void @_ZNK6AstVar4nameB5cxx11Ev(ptr dead_on_unwind writable sret(%"class.std::__cxx11::basic_string") align 8 %15, ptr noundef nonnull align 8 dereferenceable(280) %63)
  %64 = invoke noundef ptr @_ZN24V3ConfigWildcardResolverI11V3ConfigVarE7resolveERKNSt7__cxx1112basic_stringIcSt11char_traitsIcESaIcEEE(ptr noundef nonnull align 8 dereferenceable(136) %62, ptr noundef nonnull align 8 dereferenceable(32) %15)
          to label %65 unwind label %66

65:                                               ; preds = %60
  store ptr %64, ptr %7, align 8
  call void @_ZNSt7__cxx1112basic_stringIcSt11char_traitsIcESaIcEED1Ev(ptr noundef nonnull align 8 dereferenceable(32) %15) #3
  br label %70

66:                                               ; preds = %60
  %67 = landingpad { ptr, i32 }
          cleanup
  %68 = extractvalue { ptr, i32 } %67, 0
  store ptr %68, ptr %10, align 8
  %69 = extractvalue { ptr, i32 } %67, 1
  store i32 %69, ptr %11, align 4
  call void @_ZNSt7__cxx1112basic_stringIcSt11char_traitsIcESaIcEED1Ev(ptr noundef nonnull align 8 dereferenceable(32) %15) #3
  br label %77

70:                                               ; preds = %65, %55
  %71 = load ptr, ptr %7, align 8
  %72 = icmp ne ptr %71, null
  br i1 %72, label %73, label %76

73:                                               ; preds = %70
  %74 = load ptr, ptr %7, align 8
  %75 = load ptr, ptr %6, align 8
  call void @_ZN11V3ConfigVar5applyEP6AstVar(ptr noundef nonnull align 8 dereferenceable(24) %74, ptr noundef %75)
  br label %76

76:                                               ; preds = %73, %70, %45, %26
  ret void

77:                                               ; preds = %66, %56, %46, %27
  %78 = load ptr, ptr %10, align 8
  %79 = load i32, ptr %11, align 4
  %80 = insertvalue { ptr, i32 } poison, ptr %78, 0
  %81 = insertvalue { ptr, i32 } %80, i32 %79, 1
  resume { ptr, i32 } %81
}