; Function Attrs: mustprogress uwtable
define dso_local void @_ZN8V3Config12applyVarAttrEP13AstNodeModuleP12AstNodeFTaskP6AstVar(ptr noundef %0, ptr noundef %1, ptr noundef %2) local_unnamed_addr #3 align 2 personality ptr @__gxx_personality_v0 {
  %4 = alloca %"class.std::__cxx11::basic_string", align 8
  %5 = alloca %"class.std::__cxx11::basic_string", align 8
  %6 = alloca %"class.std::__cxx11::basic_string", align 8
  %7 = alloca %"class.std::__cxx11::basic_string", align 8
  %8 = load atomic i8, ptr @_ZGVZN16V3ConfigResolver1sEvE11s_singleton acquire, align 8
  %9 = icmp eq i8 %8, 0
  br i1 %9, label %10, label %_ZN16V3ConfigResolver1sEv.exit, !prof !5

10:                                               ; preds = %3
  %11 = tail call i32 @__cxa_guard_acquire(ptr nonnull @_ZGVZN16V3ConfigResolver1sEvE11s_singleton) #18
  %.not.i = icmp eq i32 %11, 0
  br i1 %.not.i, label %_ZN16V3ConfigResolver1sEv.exit, label %12

12:                                               ; preds = %10
  tail call void @_ZN16V3ConfigResolverC2Ev(ptr noundef nonnull align 8 dereferenceable(408) @_ZZN16V3ConfigResolver1sEvE11s_singleton) #18
  %13 = tail call i32 @__cxa_atexit(ptr nonnull @_ZN16V3ConfigResolverD2Ev, ptr nonnull @_ZZN16V3ConfigResolver1sEvE11s_singleton, ptr nonnull @__dso_handle) #18
  tail call void @__cxa_guard_release(ptr nonnull @_ZGVZN16V3ConfigResolver1sEvE11s_singleton) #18
  br label %_ZN16V3ConfigResolver1sEv.exit

_ZN16V3ConfigResolver1sEv.exit:                   ; preds = %3, %10, %12
  %14 = load ptr, ptr %0, align 8
  %15 = getelementptr inbounds i8, ptr %14, i64 56
  %16 = load ptr, ptr %15, align 8
  call void %16(ptr dead_on_unwind nonnull writable sret(%"class.std::__cxx11::basic_string") align 8 %4, ptr noundef nonnull align 8 dereferenceable(257) %0)
  %17 = invoke noundef ptr @_ZN24V3ConfigWildcardResolverI14V3ConfigModuleE7resolveERKNSt7__cxx1112basic_stringIcSt11char_traitsIcESaIcEEE(ptr noundef nonnull align 8 dereferenceable(136) @_ZZN16V3ConfigResolver1sEvE11s_singleton, ptr noundef nonnull align 8 dereferenceable(32) %4)
          to label %18 unwind label %19

18:                                               ; preds = %_ZN16V3ConfigResolver1sEv.exit
  call void @_ZNSt7__cxx1112basic_stringIcSt11char_traitsIcESaIcEED1Ev(ptr noundef nonnull align 8 dereferenceable(32) %4) #18
  %.not = icmp eq ptr %17, null
  br i1 %.not, label %43, label %21

19:                                               ; preds = %_ZN16V3ConfigResolver1sEv.exit
  %20 = landingpad { ptr, i32 }
          cleanup
  br label %44

21:                                               ; preds = %18
  %.not19 = icmp eq ptr %1, null
  br i1 %.not19, label %35, label %22

22:                                               ; preds = %21
  %23 = load ptr, ptr %1, align 8
  %24 = getelementptr inbounds i8, ptr %23, i64 56
  %25 = load ptr, ptr %24, align 8
  call void %25(ptr dead_on_unwind nonnull writable sret(%"class.std::__cxx11::basic_string") align 8 %5, ptr noundef nonnull align 8 dereferenceable(240) %1)
  %26 = invoke noundef ptr @_ZN24V3ConfigWildcardResolverI13V3ConfigFTaskE7resolveERKNSt7__cxx1112basic_stringIcSt11char_traitsIcESaIcEEE(ptr noundef nonnull align 8 dereferenceable(136) %17, ptr noundef nonnull align 8 dereferenceable(32) %5)
          to label %27 unwind label %28

27:                                               ; preds = %22
  call void @_ZNSt7__cxx1112basic_stringIcSt11char_traitsIcESaIcEED1Ev(ptr noundef nonnull align 8 dereferenceable(32) %5) #18
  %.not20 = icmp eq ptr %26, null
  br i1 %.not20, label %43, label %30

28:                                               ; preds = %22
  %29 = landingpad { ptr, i32 }
          cleanup
  br label %44

30:                                               ; preds = %27
  %31 = getelementptr inbounds i8, ptr %2, i64 152
  call void @_ZNSt7__cxx1112basic_stringIcSt11char_traitsIcESaIcEEC1ERKS4_(ptr noundef nonnull align 8 dereferenceable(32) %6, ptr noundef nonnull align 8 dereferenceable(32) %31)
  %32 = invoke noundef ptr @_ZN24V3ConfigWildcardResolverI11V3ConfigVarE7resolveERKNSt7__cxx1112basic_stringIcSt11char_traitsIcESaIcEEE(ptr noundef nonnull align 8 dereferenceable(136) %26, ptr noundef nonnull align 8 dereferenceable(32) %6)
          to label %41 unwind label %33

33:                                               ; preds = %30
  %34 = landingpad { ptr, i32 }
          cleanup
  br label %44

35:                                               ; preds = %21
  %36 = getelementptr inbounds i8, ptr %17, i64 136
  %37 = getelementptr inbounds i8, ptr %2, i64 152
  call void @_ZNSt7__cxx1112basic_stringIcSt11char_traitsIcESaIcEEC1ERKS4_(ptr noundef nonnull align 8 dereferenceable(32) %7, ptr noundef nonnull align 8 dereferenceable(32) %37)
  %38 = invoke noundef ptr @_ZN24V3ConfigWildcardResolverI11V3ConfigVarE7resolveERKNSt7__cxx1112basic_stringIcSt11char_traitsIcESaIcEEE(ptr noundef nonnull align 8 dereferenceable(136) %36, ptr noundef nonnull align 8 dereferenceable(32) %7)
          to label %41 unwind label %39

39:                                               ; preds = %35
  %40 = landingpad { ptr, i32 }
          cleanup
  br label %44

41:                                               ; preds = %35, %30
  %.sink = phi ptr [ %6, %30 ], [ %7, %35 ]
  %.0 = phi ptr [ %32, %30 ], [ %38, %35 ]
  call void @_ZNSt7__cxx1112basic_stringIcSt11char_traitsIcESaIcEED1Ev(ptr noundef nonnull align 8 dereferenceable(32) %.sink) #18
  %.not22 = icmp eq ptr %.0, null
  br i1 %.not22, label %43, label %42

42:                                               ; preds = %41
  call void @_ZN11V3ConfigVar5applyEP6AstVar(ptr noundef nonnull align 8 dereferenceable(24) %.0, ptr noundef %2)
  br label %43

43:                                               ; preds = %27, %18, %42, %41
  ret void

44:                                               ; preds = %39, %33, %28, %19
  %.sink23 = phi ptr [ %7, %39 ], [ %6, %33 ], [ %5, %28 ], [ %4, %19 ]
  %.pn = phi { ptr, i32 } [ %40, %39 ], [ %34, %33 ], [ %29, %28 ], [ %20, %19 ]
  call void @_ZNSt7__cxx1112basic_stringIcSt11char_traitsIcESaIcEED1Ev(ptr noundef nonnull align 8 dereferenceable(32) %.sink23) #18
  resume { ptr, i32 } %.pn
}